; Function Attrs: nounwind uwtable
define zeroext range(i8 0, 3) i8 @l_Std_Time_Internal_instOrdUnitVal___rarg(ptr noundef %0, ptr noundef %1) local_unnamed_addr #1 {
  %3 = ptrtoint ptr %0 to i64
  %4 = and i64 %3, 1
  %.not.i.i = icmp eq i64 %4, 0
  br i1 %.not.i.i, label %lean_int_dec_lt.exit, label %5, !prof !15

5:                                                ; preds = %2
  %6 = ptrtoint ptr %1 to i64
  %7 = and i64 %6, 1
  %.not7.i.i = icmp eq i64 %7, 0
  br i1 %.not7.i.i, label %lean_int_dec_lt.exit, label %8, !prof !15

8:                                                ; preds = %5
  %9 = lshr i64 %3, 1
  %10 = trunc i64 %9 to i32
  %11 = lshr i64 %6, 1
  %12 = trunc i64 %11 to i32
  %13 = icmp slt i32 %10, %12
  br i1 %13, label %21, label %15

lean_int_dec_lt.exit:                             ; preds = %2, %5
  %14 = tail call zeroext i1 @lean_int_big_lt(ptr noundef %0, ptr noundef %1) #5
  br i1 %14, label %21, label %15

15:                                               ; preds = %8, %lean_int_dec_lt.exit
  %16 = ptrtoint ptr %1 to i64
  %17 = and i64 %4, %16
  %or.cond.not.i.i = icmp eq i64 %17, 0
  br i1 %or.cond.not.i.i, label %.critedge.i.i10, label %18, !prof !12

18:                                               ; preds = %15
  %19 = icmp eq ptr %0, %1
  br label %lean_int_dec_eq.exit

.critedge.i.i10:                                  ; preds = %15
  %20 = tail call zeroext i1 @lean_int_big_eq(ptr noundef %0, ptr noundef %1) #5
  br label %lean_int_dec_eq.exit

lean_int_dec_eq.exit:                             ; preds = %18, %.critedge.i.i10
  %.0.i.i9 = phi i1 [ %19, %18 ], [ %20, %.critedge.i.i10 ]
  %. = select i1 %.0.i.i9, i8 1, i8 2
  br label %21

21:                                               ; preds = %8, %lean_int_dec_lt.exit, %lean_int_dec_eq.exit
  %.1 = phi i8 [ %., %lean_int_dec_eq.exit ], [ 0, %lean_int_dec_lt.exit ], [ 0, %8 ]
  ret i8 %.1
}